; Function Attrs: mustprogress uwtable
define { i64, i64 } @_ZN17grpc_event_engine12experimental18ThreadyEventEngine8RunAfterENSt6chrono8durationIlSt5ratioILl1ELl1000000000EEEEN4absl12lts_2024072212AnyInvocableIFvvEEE(ptr noundef nonnull align 8 dereferenceable(40) %0, i64 %1, ptr noundef %2) unnamed_addr #3 align 2 personality ptr @__gxx_personality_v0 {
  %4 = alloca %"class.absl::lts_20240722::AnyInvocable", align 16
  %5 = alloca %class.anon.61, align 16
  %6 = getelementptr inbounds nuw i8, ptr %0, i64 24
  %7 = load ptr, ptr %6, align 8, !tbaa !34
  call void @llvm.lifetime.start.p0(i64 48, ptr nonnull %5) #26
  store ptr %0, ptr %5, align 16, !tbaa !105
  %8 = getelementptr inbounds nuw i8, ptr %5, i64 16
  %9 = getelementptr inbounds nuw i8, ptr %2, i64 16
  %10 = load ptr, ptr %9, align 16, !tbaa !3
  call void %10(i1 noundef zeroext false, ptr noundef nonnull align 16 dereferenceable(32) %2, ptr noundef nonnull align 16 dereferenceable(32) %8) #26
  %11 = load ptr, ptr %9, align 16, !tbaa !3
  %12 = getelementptr inbounds nuw i8, ptr %5, i64 32
  store ptr %11, ptr %12, align 16, !tbaa !3
  %13 = getelementptr inbounds nuw i8, ptr %2, i64 24
  %14 = load ptr, ptr %13, align 8, !tbaa !8
  %15 = getelementptr inbounds nuw i8, ptr %5, i64 40
  store ptr %14, ptr %15, align 8, !tbaa !8
  store ptr @_ZN4absl12lts_2024072222internal_any_invocable12EmptyManagerENS1_14FunctionToCallEPNS1_15TypeErasedStateES4_, ptr %9, align 16, !tbaa !3
  store ptr null, ptr %13, align 8, !tbaa !8
  %16 = invoke noalias noundef nonnull dereferenceable(48) ptr @_Znwm(i64 noundef 48) #27
          to label %17 unwind label %33

17:                                               ; preds = %3
  %18 = load ptr, ptr %5, align 16, !tbaa !105
  store ptr %18, ptr %16, align 16, !tbaa !105
  %19 = getelementptr inbounds nuw i8, ptr %16, i64 16
  call void %11(i1 noundef zeroext false, ptr noundef nonnull align 16 dereferenceable(32) %8, ptr noundef nonnull align 16 dereferenceable(32) %19) #26
  %20 = load ptr, ptr %12, align 16, !tbaa !3
  %21 = getelementptr inbounds nuw i8, ptr %16, i64 32
  store ptr %20, ptr %21, align 16, !tbaa !3
  %22 = load ptr, ptr %15, align 8, !tbaa !8
  %23 = getelementptr inbounds nuw i8, ptr %16, i64 40
  store ptr %22, ptr %23, align 8, !tbaa !8
  store ptr @_ZN4absl12lts_2024072222internal_any_invocable12EmptyManagerENS1_14FunctionToCallEPNS1_15TypeErasedStateES4_, ptr %12, align 16, !tbaa !3
  store ptr null, ptr %15, align 8, !tbaa !8
  store ptr %16, ptr %4, align 16, !tbaa !50
  %24 = getelementptr inbounds nuw i8, ptr %4, i64 16
  store ptr @"_ZN4absl12lts_2024072222internal_any_invocable23RemoteManagerNontrivialIZN17grpc_event_engine12experimental18ThreadyEventEngine8RunAfterENSt6chrono8durationIlSt5ratioILl1ELl1000000000EEEENS0_12AnyInvocableIFvvEEEE3$_0EEvNS1_14FunctionToCallEPNS1_15TypeErasedStateESH_", ptr %24, align 16, !tbaa !3
  %25 = getelementptr inbounds nuw i8, ptr %4, i64 24
  store ptr @"_ZN4absl12lts_2024072222internal_any_invocable13RemoteInvokerILb0EvRZN17grpc_event_engine12experimental18ThreadyEventEngine8RunAfterENSt6chrono8durationIlSt5ratioILl1ELl1000000000EEEENS0_12AnyInvocableIFvvEEEE3$_0JEEET0_PNS1_15TypeErasedStateEDpNS1_18ForwardedParameterIT2_E4typeE", ptr %25, align 8, !tbaa !8
  %26 = load ptr, ptr %7, align 8, !tbaa !21
  %27 = getelementptr inbounds nuw i8, ptr %26, i64 88
  %28 = load ptr, ptr %27, align 8
  %29 = invoke { i64, i64 } %28(ptr noundef nonnull align 8 dereferenceable(24) %7, i64 %1, ptr noundef nonnull %4)
          to label %30 unwind label %35

30:                                               ; preds = %17
  %31 = load ptr, ptr %24, align 16, !tbaa !3
  call void %31(i1 noundef zeroext true, ptr noundef nonnull align 16 dereferenceable(32) %4, ptr noundef nonnull align 16 dereferenceable(32) %4) #26
  %32 = load ptr, ptr %12, align 16, !tbaa !3
  call void %32(i1 noundef zeroext true, ptr noundef nonnull align 16 dereferenceable(32) %8, ptr noundef nonnull align 16 dereferenceable(32) %8) #26
  call void @llvm.lifetime.end.p0(i64 48, ptr nonnull %5) #26
  ret { i64, i64 } %29

33:                                               ; preds = %3
  %34 = landingpad { ptr, i32 }
          cleanup
  br label %38

35:                                               ; preds = %17
  %36 = landingpad { ptr, i32 }
          cleanup
  %37 = load ptr, ptr %24, align 16, !tbaa !3
  call void %37(i1 noundef zeroext true, ptr noundef nonnull align 16 dereferenceable(32) %4, ptr noundef nonnull align 16 dereferenceable(32) %4) #26
  %.pre = load ptr, ptr %12, align 16, !tbaa !3
  br label %38

38:                                               ; preds = %35, %33
  %39 = phi ptr [ %.pre, %35 ], [ %11, %33 ]
  %.pn = phi { ptr, i32 } [ %36, %35 ], [ %34, %33 ]
  call void %39(i1 noundef zeroext true, ptr noundef nonnull align 16 dereferenceable(32) %8, ptr noundef nonnull align 16 dereferenceable(32) %8) #26
  call void @llvm.lifetime.end.p0(i64 48, ptr nonnull %5) #26
  resume { ptr, i32 } %.pn
}